
morse.elf:     file format elf32-littleriscv


Disassembly of section .text:

00000000 <_start>:
   0:	00001137          	lui	sp,0x1
   4:	c0010113          	addi	sp,sp,-1024 # c00 <_bss_end+0x8ec>
   8:	31400293          	li	t0,788
   c:	31400313          	li	t1,788

00000010 <bss_clear>:
  10:	00628863          	beq	t0,t1,20 <bss_done>
  14:	0002a023          	sw	zero,0(t0)
  18:	00428293          	addi	t0,t0,4
  1c:	fe62cae3          	blt	t0,t1,10 <bss_clear>

00000020 <bss_done>:
  20:	15c000ef          	jal	ra,17c <main>

00000024 <halt>:
  24:	0000006f          	j	24 <halt>

00000028 <decode_morse_message>:
  28:	00054783          	lbu	a5,0(a0)
  2c:	14078463          	beqz	a5,174 <decode_morse_message+0x14c>
  30:	02000313          	li	t1,32
  34:	00700e93          	li	t4,7
  38:	02f00f93          	li	t6,47
  3c:	20000f13          	li	t5,512
  40:	02400e13          	li	t3,36
  44:	00100293          	li	t0,1
  48:	03f00393          	li	t2,63
  4c:	00054783          	lbu	a5,0(a0)
  50:	00679863          	bne	a5,t1,60 <decode_morse_message+0x38>
  54:	00150513          	addi	a0,a0,1
  58:	00054783          	lbu	a5,0(a0)
  5c:	fe678ce3          	beq	a5,t1,54 <decode_morse_message+0x2c>
  60:	10078a63          	beqz	a5,174 <decode_morse_message+0x14c>
  64:	ff010113          	addi	sp,sp,-16
  68:	0400006f          	j	a8 <decode_morse_message+0x80>
  6c:	01010713          	addi	a4,sp,16
  70:	00f707b3          	add	a5,a4,a5
  74:	fe078c23          	sb	zero,-8(a5)
  78:	00814783          	lbu	a5,8(sp)
  7c:	05f79c63          	bne	a5,t6,d4 <decode_morse_message+0xac>
  80:	00658023          	sb	t1,0(a1)
  84:	00158593          	addi	a1,a1,1
  88:	00054783          	lbu	a5,0(a0)
  8c:	0c078a63          	beqz	a5,160 <decode_morse_message+0x138>
  90:	00054783          	lbu	a5,0(a0)
  94:	00679863          	bne	a5,t1,a4 <decode_morse_message+0x7c>
  98:	00150513          	addi	a0,a0,1
  9c:	00054783          	lbu	a5,0(a0)
  a0:	fe678ce3          	beq	a5,t1,98 <decode_morse_message+0x70>
  a4:	0a078e63          	beqz	a5,160 <decode_morse_message+0x138>
  a8:	00810713          	addi	a4,sp,8
  ac:	00000793          	li	a5,0
  b0:	00054683          	lbu	a3,0(a0)
  b4:	0df6f613          	andi	a2,a3,223
  b8:	fa060ae3          	beqz	a2,6c <decode_morse_message+0x44>
  bc:	00d70023          	sb	a3,0(a4)
  c0:	00178793          	addi	a5,a5,1
  c4:	00150513          	addi	a0,a0,1
  c8:	00170713          	addi	a4,a4,1
  cc:	ffd792e3          	bne	a5,t4,b0 <decode_morse_message+0x88>
  d0:	f9dff06f          	j	6c <decode_morse_message+0x44>
  d4:	001f0893          	addi	a7,t5,1
  d8:	00000813          	li	a6,0
  dc:	0100006f          	j	ec <decode_morse_message+0xc4>
  e0:	00180813          	addi	a6,a6,1
  e4:	00788893          	addi	a7,a7,7
  e8:	07c80463          	beq	a6,t3,150 <decode_morse_message+0x128>
  ec:	00088713          	mv	a4,a7
  f0:	00810793          	addi	a5,sp,8
  f4:	00178793          	addi	a5,a5,1
  f8:	fff7c683          	lbu	a3,-1(a5)
  fc:	00170713          	addi	a4,a4,1
 100:	fff74603          	lbu	a2,-1(a4)
 104:	fcd61ee3          	bne	a2,a3,e0 <decode_morse_message+0xb8>
 108:	fe0696e3          	bnez	a3,f4 <decode_morse_message+0xcc>
 10c:	00381793          	slli	a5,a6,0x3
 110:	41078833          	sub	a6,a5,a6
 114:	010f0833          	add	a6,t5,a6
 118:	00084783          	lbu	a5,0(a6)
 11c:	00f58023          	sb	a5,0(a1)
 120:	00158693          	addi	a3,a1,1
 124:	00054783          	lbu	a5,0(a0)
 128:	02679863          	bne	a5,t1,158 <decode_morse_message+0x130>
 12c:	00000793          	li	a5,0
 130:	00178793          	addi	a5,a5,1
 134:	00f50733          	add	a4,a0,a5
 138:	00074703          	lbu	a4,0(a4)
 13c:	fe670ae3          	beq	a4,t1,130 <decode_morse_message+0x108>
 140:	02f2d663          	bge	t0,a5,16c <decode_morse_message+0x144>
 144:	006580a3          	sb	t1,1(a1)
 148:	00258593          	addi	a1,a1,2
 14c:	f3dff06f          	j	88 <decode_morse_message+0x60>
 150:	00038793          	mv	a5,t2
 154:	fc9ff06f          	j	11c <decode_morse_message+0xf4>
 158:	00068593          	mv	a1,a3
 15c:	f2dff06f          	j	88 <decode_morse_message+0x60>
 160:	00058023          	sb	zero,0(a1)
 164:	01010113          	addi	sp,sp,16
 168:	00008067          	ret
 16c:	00068593          	mv	a1,a3
 170:	f21ff06f          	j	90 <decode_morse_message+0x68>
 174:	00058023          	sb	zero,0(a1)
 178:	00008067          	ret

0000017c <main>:
 17c:	f5010113          	addi	sp,sp,-176
 180:	0a112623          	sw	ra,172(sp)
 184:	2fc00793          	li	a5,764
 188:	0007a503          	lw	a0,0(a5)
 18c:	0047a583          	lw	a1,4(a5)
 190:	0087a603          	lw	a2,8(a5)
 194:	00c7a683          	lw	a3,12(a5)
 198:	0107a703          	lw	a4,16(a5)
 19c:	08a12423          	sw	a0,136(sp)
 1a0:	08b12623          	sw	a1,140(sp)
 1a4:	08c12823          	sw	a2,144(sp)
 1a8:	08d12a23          	sw	a3,148(sp)
 1ac:	08e12c23          	sw	a4,152(sp)
 1b0:	0147c783          	lbu	a5,20(a5)
 1b4:	08f10e23          	sb	a5,156(sp)
 1b8:	00810593          	addi	a1,sp,8
 1bc:	08810513          	addi	a0,sp,136
 1c0:	e69ff0ef          	jal	ra,28 <decode_morse_message>
 1c4:	00814683          	lbu	a3,8(sp)
 1c8:	02068463          	beqz	a3,1f0 <main+0x74>
 1cc:	00810613          	addi	a2,sp,8
 1d0:	0000f737          	lui	a4,0xf
 1d4:	00072783          	lw	a5,0(a4) # f000 <_bss_end+0xecec>
 1d8:	0017f793          	andi	a5,a5,1
 1dc:	fe078ce3          	beqz	a5,1d4 <main+0x58>
 1e0:	00d70223          	sb	a3,4(a4)
 1e4:	00160613          	addi	a2,a2,1
 1e8:	00064683          	lbu	a3,0(a2)
 1ec:	fe0694e3          	bnez	a3,1d4 <main+0x58>
 1f0:	00000513          	li	a0,0
 1f4:	0ac12083          	lw	ra,172(sp)
 1f8:	0b010113          	addi	sp,sp,176
 1fc:	00008067          	ret
